target datalayout = "e-m:e-p270:32:32-p271:32:32-p272:64:64-i64:64-i128:128-f80:128-n8:16:32:64-S128"
target triple = "x86_64-pc-linux-gnu"

%struct.reftable_buf = type { i64, i64, ptr }
%struct.reftable_write_options = type { i8, i32, i8, i16, i32, i32, i8, i8, i64, ptr, ptr, ptr }
%struct.reftable_stack = type { %struct.stat, ptr, i32, ptr, %struct.reftable_write_options, ptr, i64, ptr, %struct.reftable_compaction_stats }
%struct.stat = type { i64, i64, i64, i32, i32, i32, i32, i64, i64, i64, i64, %struct.timespec, %struct.timespec, %struct.timespec, [3 x i64] }
%struct.timespec = type { i64, i64 }
%struct.reftable_compaction_stats = type { i64, i64, i32, i32 }

@.str.5 = private unnamed_addr constant [2 x i8] c"/\00", align 1

; Function Attrs: nounwind uwtable
define internal i32 @stack_filename(ptr noundef %0, ptr noundef %1, ptr noundef %2) #0 {
  %4 = alloca i32, align 4
  %5 = alloca ptr, align 8
  %6 = alloca ptr, align 8
  %7 = alloca ptr, align 8
  %8 = alloca i32, align 4
  %9 = alloca i32, align 4
  store ptr %0, ptr %5, align 8, !tbaa !58
  store ptr %1, ptr %6, align 8, !tbaa !13
  store ptr %2, ptr %7, align 8, !tbaa !9
  call void @llvm.lifetime.start.p0(i64 4, ptr %8) #10
  %10 = load ptr, ptr %5, align 8, !tbaa !58
  call void @reftable_buf_reset(ptr noundef %10)
  %11 = load ptr, ptr %5, align 8, !tbaa !58
  %12 = load ptr, ptr %6, align 8, !tbaa !13
  %13 = getelementptr inbounds nuw %struct.reftable_stack, ptr %12, i32 0, i32 3
  %14 = load ptr, ptr %13, align 8, !tbaa !34
  %15 = call i32 @reftable_buf_addstr(ptr noundef %11, ptr noundef %14)
  store i32 %15, ptr %8, align 4, !tbaa !15
  %16 = icmp slt i32 %15, 0
  br i1 %16, label %26, label %17

17:                                               ; preds = %3
  %18 = load ptr, ptr %5, align 8, !tbaa !58
  %19 = call i32 @reftable_buf_addstr(ptr noundef %18, ptr noundef @.str.5)
  store i32 %19, ptr %8, align 4, !tbaa !15
  %20 = icmp slt i32 %19, 0
  br i1 %20, label %26, label %21

21:                                               ; preds = %17
  %22 = load ptr, ptr %5, align 8, !tbaa !58
  %23 = load ptr, ptr %7, align 8, !tbaa !9
  %24 = call i32 @reftable_buf_addstr(ptr noundef %22, ptr noundef %23)
  store i32 %24, ptr %8, align 4, !tbaa !15
  %25 = icmp slt i32 %24, 0
  br i1 %25, label %26, label %28

26:                                               ; preds = %21, %17, %3
  %27 = load i32, ptr %8, align 4, !tbaa !15
  store i32 %27, ptr %4, align 4
  store i32 1, ptr %9, align 4
  br label %29

28:                                               ; preds = %21
  store i32 0, ptr %4, align 4
  store i32 1, ptr %9, align 4
  br label %29

29:                                               ; preds = %28, %26
  call void @llvm.lifetime.end.p0(i64 4, ptr %8) #10
  %30 = load i32, ptr %4, align 4
  ret i32 %30
}

; Function Attrs: nounwind uwtable
define internal i32 @has_name(ptr noundef %0, ptr noundef %1) #0 {
  %3 = alloca i32, align 4
  %4 = alloca ptr, align 8
  %5 = alloca ptr, align 8
  store ptr %0, ptr %4, align 8, !tbaa !35
  store ptr %1, ptr %5, align 8, !tbaa !9
  br label %6

6:                                                ; preds = %17, %2
  %7 = load ptr, ptr %4, align 8, !tbaa !35
  %8 = load ptr, ptr %7, align 8, !tbaa !9
  %9 = icmp ne ptr %8, null
  br i1 %9, label %10, label %20

10:                                               ; preds = %6
  %11 = load ptr, ptr %4, align 8, !tbaa !35
  %12 = load ptr, ptr %11, align 8, !tbaa !9
  %13 = load ptr, ptr %5, align 8, !tbaa !9
  %14 = call i32 @strcmp(ptr noundef %12, ptr noundef %13) #12
  %15 = icmp ne i32 %14, 0
  br i1 %15, label %17, label %16

16:                                               ; preds = %10
  store i32 1, ptr %3, align 4
  br label %21

17:                                               ; preds = %10
  %18 = load ptr, ptr %4, align 8, !tbaa !35
  %19 = getelementptr inbounds nuw ptr, ptr %18, i32 1
  store ptr %19, ptr %4, align 8, !tbaa !35
  br label %6, !llvm.loop !57

20:                                               ; preds = %6
  store i32 0, ptr %3, align 4
  br label %21

21:                                               ; preds = %20, %16
  %22 = load i32, ptr %3, align 4
  ret i32 %22
}

; Function Attrs: nounwind uwtable
define dso_local i32 @read_lines(ptr noundef %0, ptr noundef %1) #0 {
  %3 = alloca i32, align 4
  %4 = alloca ptr, align 8
  %5 = alloca ptr, align 8
  %6 = alloca i32, align 4
  %7 = alloca i32, align 4
  %8 = alloca i32, align 4
  store ptr %0, ptr %4, align 8, !tbaa !9
  store ptr %1, ptr %5, align 8, !tbaa !53
  call void @llvm.lifetime.start.p0(i64 4, ptr %6) #10
  %9 = load ptr, ptr %4, align 8, !tbaa !9
  %10 = call i32 (ptr, i32, ...) @open64(ptr noundef %9, i32 noundef 0)
  store i32 %10, ptr %6, align 4, !tbaa !15
  call void @llvm.lifetime.start.p0(i64 4, ptr %7) #10
  store i32 0, ptr %7, align 4, !tbaa !15
  %11 = load i32, ptr %6, align 4, !tbaa !15
  %12 = icmp slt i32 %11, 0
  br i1 %12, label %13, label %26

13:                                               ; preds = %2
  %14 = call ptr @__errno_location() #11
  %15 = load i32, ptr %14, align 4, !tbaa !15
  %16 = icmp eq i32 %15, 2
  br i1 %16, label %17, label %25

17:                                               ; preds = %13
  %18 = call ptr @reftable_calloc(i64 noundef 1, i64 noundef 8)
  %19 = load ptr, ptr %5, align 8, !tbaa !53
  store ptr %18, ptr %19, align 8, !tbaa !35
  %20 = load ptr, ptr %5, align 8, !tbaa !53
  %21 = load ptr, ptr %20, align 8, !tbaa !35
  %22 = icmp ne ptr %21, null
  br i1 %22, label %24, label %23

23:                                               ; preds = %17
  store i32 -13, ptr %3, align 4
  store i32 1, ptr %8, align 4
  br label %33

24:                                               ; preds = %17
  store i32 0, ptr %3, align 4
  store i32 1, ptr %8, align 4
  br label %33

25:                                               ; preds = %13
  store i32 -2, ptr %3, align 4
  store i32 1, ptr %8, align 4
  br label %33

26:                                               ; preds = %2
  %27 = load i32, ptr %6, align 4, !tbaa !15
  %28 = load ptr, ptr %5, align 8, !tbaa !53
  %29 = call i32 @fd_read_lines(i32 noundef %27, ptr noundef %28)
  store i32 %29, ptr %7, align 4, !tbaa !15
  %30 = load i32, ptr %6, align 4, !tbaa !15
  %31 = call i32 @close(i32 noundef %30)
  %32 = load i32, ptr %7, align 4, !tbaa !15
  store i32 %32, ptr %3, align 4
  store i32 1, ptr %8, align 4
  br label %33

33:                                               ; preds = %26, %25, %24, %23
  call void @llvm.lifetime.end.p0(i64 4, ptr %7) #10
  call void @llvm.lifetime.end.p0(i64 4, ptr %6) #10
  %34 = load i32, ptr %3, align 4
  ret i32 %34
}

; Function Attrs: nounwind uwtable
define dso_local void @reftable_stack_destroy(ptr noundef %0) #0 {
  %2 = alloca ptr, align 8
  %3 = alloca ptr, align 8
  %4 = alloca i32, align 4
  %5 = alloca i32, align 4
  %6 = alloca %struct.reftable_buf, align 8
  %7 = alloca i64, align 8
  %8 = alloca ptr, align 8
  %9 = alloca i32, align 4
  store ptr %0, ptr %2, align 8, !tbaa !13
  call void @llvm.lifetime.start.p0(i64 8, ptr %3) #10
  store ptr null, ptr %3, align 8, !tbaa !35
  call void @llvm.lifetime.start.p0(i64 4, ptr %4) #10
  store i32 0, ptr %4, align 4, !tbaa !15
  %10 = load ptr, ptr %2, align 8, !tbaa !13
  %11 = icmp ne ptr %10, null
  br i1 %11, label %13, label %12

12:                                               ; preds = %1
  store i32 1, ptr %5, align 4
  br label %134

13:                                               ; preds = %1
  %14 = load ptr, ptr %2, align 8, !tbaa !13
  %15 = getelementptr inbounds nuw %struct.reftable_stack, ptr %14, i32 0, i32 7
  %16 = load ptr, ptr %15, align 8, !tbaa !43
  %17 = icmp ne ptr %16, null
  br i1 %17, label %18, label %24

18:                                               ; preds = %13
  %19 = load ptr, ptr %2, align 8, !tbaa !13
  %20 = getelementptr inbounds nuw %struct.reftable_stack, ptr %19, i32 0, i32 7
  %21 = load ptr, ptr %20, align 8, !tbaa !43
  call void @reftable_merged_table_free(ptr noundef %21)
  %22 = load ptr, ptr %2, align 8, !tbaa !13
  %23 = getelementptr inbounds nuw %struct.reftable_stack, ptr %22, i32 0, i32 7
  store ptr null, ptr %23, align 8, !tbaa !43
  br label %24

24:                                               ; preds = %18, %13
  %25 = load ptr, ptr %2, align 8, !tbaa !13
  %26 = getelementptr inbounds nuw %struct.reftable_stack, ptr %25, i32 0, i32 1
  %27 = load ptr, ptr %26, align 8, !tbaa !26
  %28 = call i32 @read_lines(ptr noundef %27, ptr noundef %3)
  store i32 %28, ptr %4, align 4, !tbaa !15
  %29 = load i32, ptr %4, align 4, !tbaa !15
  %30 = icmp slt i32 %29, 0
  br i1 %30, label %31, label %36

31:                                               ; preds = %24
  br label %32

32:                                               ; preds = %31
  %33 = load ptr, ptr %3, align 8, !tbaa !35
  call void @reftable_free(ptr noundef %33)
  store ptr null, ptr %3, align 8, !tbaa !35
  br label %34

34:                                               ; preds = %32
  br label %35

35:                                               ; preds = %34
  br label %36

36:                                               ; preds = %35, %24
  %37 = load ptr, ptr %2, align 8, !tbaa !13
  %38 = getelementptr inbounds nuw %struct.reftable_stack, ptr %37, i32 0, i32 5
  %39 = load ptr, ptr %38, align 8, !tbaa !44
  %40 = icmp ne ptr %39, null
  br i1 %40, label %41, label %103

41:                                               ; preds = %36
  call void @llvm.lifetime.start.p0(i64 24, ptr %6) #10
  call void @llvm.memset.p0.i64(ptr align 8 %6, i8 0, i64 24, i1 false)
  call void @llvm.lifetime.start.p0(i64 8, ptr %7) #10
  store i64 0, ptr %7, align 8, !tbaa !21
  br label %42

42:                                               ; preds = %89, %41
  %43 = load i64, ptr %7, align 8, !tbaa !21
  %44 = load ptr, ptr %2, align 8, !tbaa !13
  %45 = getelementptr inbounds nuw %struct.reftable_stack, ptr %44, i32 0, i32 6
  %46 = load i64, ptr %45, align 8, !tbaa !45
  %47 = icmp ult i64 %43, %46
  br i1 %47, label %49, label %48

48:                                               ; preds = %42
  store i32 4, ptr %5, align 4
  call void @llvm.lifetime.end.p0(i64 8, ptr %7) #10
  br label %92

49:                                               ; preds = %42
  call void @llvm.lifetime.start.p0(i64 8, ptr %8) #10
  %50 = load ptr, ptr %2, align 8, !tbaa !13
  %51 = getelementptr inbounds nuw %struct.reftable_stack, ptr %50, i32 0, i32 5
  %52 = load ptr, ptr %51, align 8, !tbaa !44
  %53 = load i64, ptr %7, align 8, !tbaa !21
  %54 = getelementptr inbounds nuw ptr, ptr %52, i64 %53
  %55 = load ptr, ptr %54, align 8, !tbaa !46
  %56 = call ptr @reader_name(ptr noundef %55)
  store ptr %56, ptr %8, align 8, !tbaa !9
  call void @llvm.lifetime.start.p0(i64 4, ptr %9) #10
  store i32 1, ptr %9, align 4, !tbaa !15
  call void @reftable_buf_reset(ptr noundef %6)
  %57 = load ptr, ptr %3, align 8, !tbaa !35
  %58 = icmp ne ptr %57, null
  br i1 %58, label %59, label %71

59:                                               ; preds = %49
  %60 = load ptr, ptr %3, align 8, !tbaa !35
  %61 = load ptr, ptr %8, align 8, !tbaa !9
  %62 = call i32 @has_name(ptr noundef %60, ptr noundef %61)
  %63 = icmp ne i32 %62, 0
  br i1 %63, label %71, label %64

64:                                               ; preds = %59
  %65 = load ptr, ptr %2, align 8, !tbaa !13
  %66 = load ptr, ptr %8, align 8, !tbaa !9
  %67 = call i32 @stack_filename(ptr noundef %6, ptr noundef %65, ptr noundef %66)
  %68 = icmp slt i32 %67, 0
  br i1 %68, label %69, label %70

69:                                               ; preds = %64
  store i32 0, ptr %9, align 4, !tbaa !15
  br label %70

70:                                               ; preds = %69, %64
  br label %71

71:                                               ; preds = %70, %59, %49
  %72 = load ptr, ptr %2, align 8, !tbaa !13
  %73 = getelementptr inbounds nuw %struct.reftable_stack, ptr %72, i32 0, i32 5
  %74 = load ptr, ptr %73, align 8, !tbaa !44
  %75 = load i64, ptr %7, align 8, !tbaa !21
  %76 = getelementptr inbounds nuw ptr, ptr %74, i64 %75
  %77 = load ptr, ptr %76, align 8, !tbaa !46
  call void @reftable_reader_decref(ptr noundef %77)
  %78 = load i32, ptr %9, align 4, !tbaa !15
  %79 = icmp ne i32 %78, 0
  br i1 %79, label %80, label %88

80:                                               ; preds = %71
  %81 = getelementptr inbounds nuw %struct.reftable_buf, ptr %6, i32 0, i32 1
  %82 = load i64, ptr %81, align 8, !tbaa !48
  %83 = icmp ne i64 %82, 0
  br i1 %83, label %84, label %88

84:                                               ; preds = %80
  %85 = getelementptr inbounds nuw %struct.reftable_buf, ptr %6, i32 0, i32 2
  %86 = load ptr, ptr %85, align 8, !tbaa !50
  %87 = call i32 @unlink(ptr noundef %86) #10
  br label %88

88:                                               ; preds = %84, %80, %71
  call void @llvm.lifetime.end.p0(i64 4, ptr %9) #10
  call void @llvm.lifetime.end.p0(i64 8, ptr %8) #10
  br label %89

89:                                               ; preds = %88
  %90 = load i64, ptr %7, align 8, !tbaa !21
  %91 = add i64 %90, 1
  store i64 %91, ptr %7, align 8, !tbaa !21
  br label %42, !llvm.loop !51

92:                                               ; preds = %48
  call void @reftable_buf_release(ptr noundef %6)
  %93 = load ptr, ptr %2, align 8, !tbaa !13
  %94 = getelementptr inbounds nuw %struct.reftable_stack, ptr %93, i32 0, i32 6
  store i64 0, ptr %94, align 8, !tbaa !45
  br label %95

95:                                               ; preds = %92
  %96 = load ptr, ptr %2, align 8, !tbaa !13
  %97 = getelementptr inbounds nuw %struct.reftable_stack, ptr %96, i32 0, i32 5
  %98 = load ptr, ptr %97, align 8, !tbaa !44
  call void @reftable_free(ptr noundef %98)
  %99 = load ptr, ptr %2, align 8, !tbaa !13
  %100 = getelementptr inbounds nuw %struct.reftable_stack, ptr %99, i32 0, i32 5
  store ptr null, ptr %100, align 8, !tbaa !44
  br label %101

101:                                              ; preds = %95
  br label %102

102:                                              ; preds = %101
  call void @llvm.lifetime.end.p0(i64 24, ptr %6) #10
  br label %103

103:                                              ; preds = %102, %36
  %104 = load ptr, ptr %2, align 8, !tbaa !13
  %105 = getelementptr inbounds nuw %struct.reftable_stack, ptr %104, i32 0, i32 2
  %106 = load i32, ptr %105, align 8, !tbaa !33
  %107 = icmp sge i32 %106, 0
  br i1 %107, label %108, label %115

108:                                              ; preds = %103
  %109 = load ptr, ptr %2, align 8, !tbaa !13
  %110 = getelementptr inbounds nuw %struct.reftable_stack, ptr %109, i32 0, i32 2
  %111 = load i32, ptr %110, align 8, !tbaa !33
  %112 = call i32 @close(i32 noundef %111)
  %113 = load ptr, ptr %2, align 8, !tbaa !13
  %114 = getelementptr inbounds nuw %struct.reftable_stack, ptr %113, i32 0, i32 2
  store i32 -1, ptr %114, align 8, !tbaa !33
  br label %115

115:                                              ; preds = %108, %103
  br label %116

116:                                              ; preds = %115
  %117 = load ptr, ptr %2, align 8, !tbaa !13
  %118 = getelementptr inbounds nuw %struct.reftable_stack, ptr %117, i32 0, i32 1
  %119 = load ptr, ptr %118, align 8, !tbaa !26
  call void @reftable_free(ptr noundef %119)
  %120 = load ptr, ptr %2, align 8, !tbaa !13
  %121 = getelementptr inbounds nuw %struct.reftable_stack, ptr %120, i32 0, i32 1
  store ptr null, ptr %121, align 8, !tbaa !26
  br label %122

122:                                              ; preds = %116
  br label %123

123:                                              ; preds = %122
  br label %124

124:                                              ; preds = %123
  %125 = load ptr, ptr %2, align 8, !tbaa !13
  %126 = getelementptr inbounds nuw %struct.reftable_stack, ptr %125, i32 0, i32 3
  %127 = load ptr, ptr %126, align 8, !tbaa !34
  call void @reftable_free(ptr noundef %127)
  %128 = load ptr, ptr %2, align 8, !tbaa !13
  %129 = getelementptr inbounds nuw %struct.reftable_stack, ptr %128, i32 0, i32 3
  store ptr null, ptr %129, align 8, !tbaa !34
  br label %130

130:                                              ; preds = %124
  br label %131

131:                                              ; preds = %130
  %132 = load ptr, ptr %2, align 8, !tbaa !13
  call void @reftable_free(ptr noundef %132)
  %133 = load ptr, ptr %3, align 8, !tbaa !35
  call void @free_names(ptr noundef %133)
  store i32 0, ptr %5, align 4
  br label %134

134:                                              ; preds = %131, %12
  call void @llvm.lifetime.end.p0(i64 4, ptr %4) #10
  call void @llvm.lifetime.end.p0(i64 8, ptr %3) #10
  %135 = load i32, ptr %5, align 4
  switch i32 %135, label %137 [
    i32 0, label %136
    i32 1, label %136
  ]

136:                                              ; preds = %134, %134
  ret void

137:                                              ; preds = %134
  unreachable
}