; Function Attrs: nounwind uwtable
define dso_local void @reftable_stack_destroy(ptr noundef %0) local_unnamed_addr #0 {
  %2 = alloca ptr, align 8
  %3 = alloca %struct.reftable_buf, align 8
  call void @llvm.lifetime.start.p0(i64 8, ptr nonnull %2) #16
  store ptr null, ptr %2, align 8, !tbaa !30
  %.not = icmp eq ptr %0, null
  br i1 %.not, label %91, label %4

4:                                                ; preds = %1
  %5 = getelementptr inbounds nuw i8, ptr %0, i64 240
  %6 = load ptr, ptr %5, align 8, !tbaa !34
  %.not35 = icmp eq ptr %6, null
  br i1 %.not35, label %8, label %7

7:                                                ; preds = %4
  tail call void @reftable_merged_table_free(ptr noundef nonnull %6) #16
  store ptr null, ptr %5, align 8, !tbaa !34
  br label %8

8:                                                ; preds = %7, %4
  %9 = getelementptr inbounds nuw i8, ptr %0, i64 144
  %10 = load ptr, ptr %9, align 8, !tbaa !19
  %11 = tail call i32 (ptr, i32, ...) @open64(ptr noundef readonly %10, i32 noundef 0) #16
  %12 = icmp slt i32 %11, 0
  br i1 %12, label %13, label %read_lines.exit

13:                                               ; preds = %8
  %14 = tail call ptr @__errno_location() #17
  %15 = load i32, ptr %14, align 4, !tbaa !8
  %16 = icmp eq i32 %15, 2
  br i1 %16, label %17, label %read_lines.exit.thread

17:                                               ; preds = %13
  %18 = tail call ptr @reftable_calloc(i64 noundef 1, i64 noundef 8) #16
  store ptr %18, ptr %2, align 8, !tbaa !30
  %.not.i = icmp eq ptr %18, null
  br i1 %.not.i, label %read_lines.exit.thread, label %read_lines.exit.thread42

read_lines.exit:                                  ; preds = %8
  %19 = call fastcc i32 @fd_read_lines(i32 noundef %11, ptr noundef nonnull %2)
  %20 = tail call i32 @close(i32 noundef %11) #16
  %21 = icmp slt i32 %19, 0
  br i1 %21, label %read_lines.exit.read_lines.exit.thread_crit_edge, label %read_lines.exit.thread42

read_lines.exit.read_lines.exit.thread_crit_edge: ; preds = %read_lines.exit
  %.pre = load ptr, ptr %2, align 8, !tbaa !30
  br label %read_lines.exit.thread

read_lines.exit.thread:                           ; preds = %read_lines.exit.read_lines.exit.thread_crit_edge, %17, %13
  %22 = phi ptr [ %.pre, %read_lines.exit.read_lines.exit.thread_crit_edge ], [ null, %17 ], [ null, %13 ]
  tail call void @reftable_free(ptr noundef %22) #16
  store ptr null, ptr %2, align 8, !tbaa !30
  br label %read_lines.exit.thread42

read_lines.exit.thread42:                         ; preds = %17, %read_lines.exit.thread, %read_lines.exit
  %23 = getelementptr inbounds nuw i8, ptr %0, i64 224
  %24 = load ptr, ptr %23, align 8, !tbaa !38
  %.not36 = icmp eq ptr %24, null
  br i1 %.not36, label %80, label %25

25:                                               ; preds = %read_lines.exit.thread42
  call void @llvm.lifetime.start.p0(i64 24, ptr nonnull %3) #16
  call void @llvm.memset.p0.i64(ptr noundef nonnull align 8 dereferenceable(24) %3, i8 0, i64 24, i1 false)
  %26 = getelementptr inbounds nuw i8, ptr %0, i64 232
  %27 = load i64, ptr %26, align 8, !tbaa !55
  %.not47 = icmp eq i64 %27, 0
  br i1 %.not47, label %._crit_edge, label %.lr.ph

.lr.ph:                                           ; preds = %25
  %28 = load ptr, ptr %2, align 8
  %.fr = freeze ptr %28
  %.not37 = icmp eq ptr %.fr, null
  %29 = getelementptr inbounds nuw i8, ptr %0, i64 160
  %30 = getelementptr inbounds nuw i8, ptr %3, i64 8
  %31 = getelementptr inbounds nuw i8, ptr %3, i64 16
  br i1 %.not37, label %has_name.exit.us, label %.lr.ph.split

has_name.exit.us:                                 ; preds = %.lr.ph, %43
  %.03046.us = phi i64 [ %44, %43 ], [ 0, %.lr.ph ]
  %32 = load ptr, ptr %23, align 8, !tbaa !38
  %33 = getelementptr inbounds nuw ptr, ptr %32, i64 %.03046.us
  %34 = load ptr, ptr %33, align 8, !tbaa !39
  %35 = call ptr @reader_name(ptr noundef %34) #16
  call void @reftable_buf_reset(ptr noundef nonnull %3) #16
  %36 = load ptr, ptr %23, align 8, !tbaa !38
  %37 = getelementptr inbounds nuw ptr, ptr %36, i64 %.03046.us
  %38 = load ptr, ptr %37, align 8, !tbaa !39
  call void @reftable_reader_decref(ptr noundef %38) #16
  %39 = load i64, ptr %30, align 8
  %.not48 = icmp eq i64 %39, 0
  br i1 %.not48, label %43, label %40

40:                                               ; preds = %has_name.exit.us
  %41 = load ptr, ptr %31, align 8, !tbaa !50
  %42 = call i32 @unlink(ptr noundef %41) #16
  br label %43

43:                                               ; preds = %40, %has_name.exit.us
  %44 = add nuw i64 %.03046.us, 1
  %45 = load i64, ptr %26, align 8, !tbaa !55
  %46 = icmp ult i64 %44, %45
  br i1 %46, label %has_name.exit.us, label %._crit_edge, !llvm.loop !62

._crit_edge:                                      ; preds = %76, %43, %25
  call void @reftable_buf_release(ptr noundef nonnull %3) #16
  store i64 0, ptr %26, align 8, !tbaa !55
  %47 = load ptr, ptr %23, align 8, !tbaa !38
  call void @reftable_free(ptr noundef %47) #16
  store ptr null, ptr %23, align 8, !tbaa !38
  call void @llvm.lifetime.end.p0(i64 24, ptr nonnull %3) #16
  br label %80

.lr.ph.split:                                     ; preds = %.lr.ph, %76
  %.03046 = phi i64 [ %77, %76 ], [ 0, %.lr.ph ]
  %48 = load ptr, ptr %23, align 8, !tbaa !38
  %49 = getelementptr inbounds nuw ptr, ptr %48, i64 %.03046
  %50 = load ptr, ptr %49, align 8, !tbaa !39
  %51 = call ptr @reader_name(ptr noundef %50) #16
  call void @reftable_buf_reset(ptr noundef nonnull %3) #16
  %52 = load ptr, ptr %.fr, align 8, !tbaa !43
  %.not7.i = icmp eq ptr %52, null
  br i1 %.not7.i, label %.loopexit, label %.lr.ph.i

53:                                               ; preds = %.lr.ph.i
  %54 = getelementptr inbounds nuw i8, ptr %.048.i, i64 8
  %55 = load ptr, ptr %54, align 8, !tbaa !43
  %.not.i39 = icmp eq ptr %55, null
  br i1 %.not.i39, label %.loopexit, label %.lr.ph.i, !llvm.loop !63

.lr.ph.i:                                         ; preds = %.lr.ph.split, %53
  %56 = phi ptr [ %55, %53 ], [ %52, %.lr.ph.split ]
  %.048.i = phi ptr [ %54, %53 ], [ %.fr, %.lr.ph.split ]
  %57 = call i32 @strcmp(ptr noundef nonnull dereferenceable(1) %56, ptr noundef nonnull readonly dereferenceable(1) %51) #18
  %.not6.i = icmp eq i32 %57, 0
  br i1 %.not6.i, label %has_name.exit, label %53

.loopexit:                                        ; preds = %53, %.lr.ph.split
  call void @reftable_buf_reset(ptr noundef nonnull %3) #16
  %58 = load ptr, ptr %29, align 8, !tbaa !29
  %59 = call i32 @reftable_buf_addstr(ptr noundef nonnull %3, ptr noundef %58) #16
  %60 = icmp slt i32 %59, 0
  br i1 %60, label %has_name.exit, label %61

61:                                               ; preds = %.loopexit
  %62 = call i32 @reftable_buf_addstr(ptr noundef nonnull %3, ptr noundef nonnull @.str.5) #16
  %63 = icmp slt i32 %62, 0
  br i1 %63, label %has_name.exit, label %64

64:                                               ; preds = %61
  %65 = call i32 @reftable_buf_addstr(ptr noundef nonnull %3, ptr noundef %51) #16
  %66 = icmp sgt i32 %65, -1
  br label %has_name.exit

has_name.exit:                                    ; preds = %.lr.ph.i, %64, %61, %.loopexit
  %67 = phi i1 [ false, %.loopexit ], [ false, %61 ], [ %66, %64 ], [ true, %.lr.ph.i ]
  %68 = load ptr, ptr %23, align 8, !tbaa !38
  %69 = getelementptr inbounds nuw ptr, ptr %68, i64 %.03046
  %70 = load ptr, ptr %69, align 8, !tbaa !39
  call void @reftable_reader_decref(ptr noundef %70) #16
  %71 = load i64, ptr %30, align 8
  %72 = icmp ne i64 %71, 0
  %or.cond = select i1 %67, i1 %72, i1 false
  br i1 %or.cond, label %73, label %76

73:                                               ; preds = %has_name.exit
  %74 = load ptr, ptr %31, align 8, !tbaa !50
  %75 = call i32 @unlink(ptr noundef %74) #16
  br label %76

76:                                               ; preds = %73, %has_name.exit
  %77 = add nuw i64 %.03046, 1
  %78 = load i64, ptr %26, align 8, !tbaa !55
  %79 = icmp ult i64 %77, %78
  br i1 %79, label %.lr.ph.split, label %._crit_edge, !llvm.loop !62

80:                                               ; preds = %._crit_edge, %read_lines.exit.thread42
  %81 = getelementptr inbounds nuw i8, ptr %0, i64 152
  %82 = load i32, ptr %81, align 8, !tbaa !28
  %83 = icmp sgt i32 %82, -1
  br i1 %83, label %84, label %86

84:                                               ; preds = %80
  %85 = call i32 @close(i32 noundef %82) #16
  store i32 -1, ptr %81, align 8, !tbaa !28
  br label %86

86:                                               ; preds = %80, %84
  %87 = load ptr, ptr %9, align 8, !tbaa !19
  call void @reftable_free(ptr noundef %87) #16
  store ptr null, ptr %9, align 8, !tbaa !19
  %88 = getelementptr inbounds nuw i8, ptr %0, i64 160
  %89 = load ptr, ptr %88, align 8, !tbaa !29
  call void @reftable_free(ptr noundef %89) #16
  store ptr null, ptr %88, align 8, !tbaa !29
  call void @reftable_free(ptr noundef nonnull %0) #16
  %90 = load ptr, ptr %2, align 8, !tbaa !30
  call void @free_names(ptr noundef %90) #16
  br label %91

91:                                               ; preds = %1, %86
  call void @llvm.lifetime.end.p0(i64 8, ptr nonnull %2) #16
  ret void
}